#include <math.h>
#include <stdio.h>
#include <stdlib.h>
#include <string.h>

int main()
{
	int i,j,m,s,t;
	scanf("%d",&m);
	for(i=3;i<=m/2;i=i+2)
	{for(j=2;j<=m;j++)
	{t=0;if(((m-i)!=j)&&(i!=j)&&((i%j==0)||((m-i)%j==0))){t=1;break;}}
	if(t==0)
		printf("%d %d\n",i,m-i);}

return 0;
}