; ModuleID = '43/1302.c'
source_filename = "43/1302.c"
target datalayout = "e-m:e-p270:32:32-p271:32:32-p272:64:64-i64:64-f80:128-n8:16:32:64-S128"
target triple = "x86_64-pc-linux-gnu"

@.str = private unnamed_addr constant [3 x i8] c"%d\00", align 1
@.str.1 = private unnamed_addr constant [7 x i8] c"%d %d\0A\00", align 1

; Function Attrs: noinline nounwind uwtable
define dso_local i32 @main() #0 {
  %1 = alloca i32, align 4
  %2 = alloca i32, align 4
  %3 = alloca i32, align 4
  %4 = alloca i32, align 4
  %5 = alloca i32, align 4
  %6 = alloca i32, align 4
  store i32 0, i32* %1, align 4
  %7 = call i32 (i8*, ...) @__isoc99_scanf(i8* getelementptr inbounds ([3 x i8], [3 x i8]* @.str, i64 0, i64 0), i32* %4)
  store i32 3, i32* %2, align 4
  br label %8

8:                                                ; preds = %55, %0
  %9 = load i32, i32* %2, align 4
  %10 = load i32, i32* %4, align 4
  %11 = sdiv i32 %10, 2
  %12 = icmp sle i32 %9, %11
  br i1 %12, label %13, label %58

13:                                               ; preds = %8
  store i32 2, i32* %3, align 4
  br label %14

14:                                               ; preds = %42, %13
  %15 = load i32, i32* %3, align 4
  %16 = load i32, i32* %4, align 4
  %17 = icmp sle i32 %15, %16
  br i1 %17, label %18, label %45

18:                                               ; preds = %14
  store i32 0, i32* %6, align 4
  %19 = load i32, i32* %4, align 4
  %20 = load i32, i32* %2, align 4
  %21 = sub nsw i32 %19, %20
  %22 = load i32, i32* %3, align 4
  %23 = icmp ne i32 %21, %22
  br i1 %23, label %24, label %41

24:                                               ; preds = %18
  %25 = load i32, i32* %2, align 4
  %26 = load i32, i32* %3, align 4
  %27 = icmp ne i32 %25, %26
  br i1 %27, label %28, label %41

28:                                               ; preds = %24
  %29 = load i32, i32* %2, align 4
  %30 = load i32, i32* %3, align 4
  %31 = srem i32 %29, %30
  %32 = icmp eq i32 %31, 0
  br i1 %32, label %40, label %33

33:                                               ; preds = %28
  %34 = load i32, i32* %4, align 4
  %35 = load i32, i32* %2, align 4
  %36 = sub nsw i32 %34, %35
  %37 = load i32, i32* %3, align 4
  %38 = srem i32 %36, %37
  %39 = icmp eq i32 %38, 0
  br i1 %39, label %40, label %41

40:                                               ; preds = %33, %28
  store i32 1, i32* %6, align 4
  br label %45

41:                                               ; preds = %33, %24, %18
  br label %42

42:                                               ; preds = %41
  %43 = load i32, i32* %3, align 4
  %44 = add nsw i32 %43, 1
  store i32 %44, i32* %3, align 4
  br label %14

45:                                               ; preds = %40, %14
  %46 = load i32, i32* %6, align 4
  %47 = icmp eq i32 %46, 0
  br i1 %47, label %48, label %54

48:                                               ; preds = %45
  %49 = load i32, i32* %2, align 4
  %50 = load i32, i32* %4, align 4
  %51 = load i32, i32* %2, align 4
  %52 = sub nsw i32 %50, %51
  %53 = call i32 (i8*, ...) @printf(i8* getelementptr inbounds ([7 x i8], [7 x i8]* @.str.1, i64 0, i64 0), i32 %49, i32 %52)
  br label %54

54:                                               ; preds = %48, %45
  br label %55

55:                                               ; preds = %54
  %56 = load i32, i32* %2, align 4
  %57 = add nsw i32 %56, 2
  store i32 %57, i32* %2, align 4
  br label %8

58:                                               ; preds = %8
  ret i32 0
}

declare dso_local i32 @__isoc99_scanf(i8*, ...) #1

declare dso_local i32 @printf(i8*, ...) #1


!llvm.module.flags = !{!0}
!llvm.ident = !{!1}

!0 = !{i32 1, !"wchar_size", i32 4}
!1 = !{!"clang version 10.0.0-4ubuntu1 "}
