; ModuleID = 'source-C-CXX/42/1302.c'
source_filename = "source-C-CXX/42/1302.c"
target datalayout = "e-m:e-p270:32:32-p271:32:32-p272:64:64-i64:64-f80:128-n8:16:32:64-S128"
target triple = "x86_64-pc-linux-gnu"

@.str = private unnamed_addr constant [3 x i8] c"%d\00", align 1
@.str.1 = private unnamed_addr constant [7 x i8] c"%d %d\0A\00", align 1

; Function Attrs: nofree nounwind sspstrong uwtable
define dso_local i32 @main() local_unnamed_addr #0 {
  %1 = alloca i32, align 4
  %2 = bitcast i32* %1 to i8*
  call void @llvm.lifetime.start.p0i8(i64 4, i8* nonnull %2) #3
  %3 = call i32 (i8*, ...) @__isoc99_scanf(i8* getelementptr inbounds ([3 x i8], [3 x i8]* @.str, i64 0, i64 0), i32* nonnull %1)
  %4 = load i32, i32* %1, align 4, !tbaa !5
  %5 = icmp slt i32 %4, 6
  br i1 %5, label %37, label %6

6:                                                ; preds = %0, %31
  %7 = phi i32 [ %32, %31 ], [ %4, %0 ]
  %8 = phi i32 [ %33, %31 ], [ undef, %0 ]
  %9 = phi i32 [ %34, %31 ], [ 3, %0 ]
  %10 = sub nsw i32 %7, %9
  %11 = icmp slt i32 %7, 2
  br i1 %11, label %26, label %12

12:                                               ; preds = %6, %23
  %13 = phi i32 [ %24, %23 ], [ 2, %6 ]
  %14 = icmp eq i32 %10, %13
  %15 = icmp eq i32 %9, %13
  %16 = or i1 %14, %15
  br i1 %16, label %23, label %17

17:                                               ; preds = %12
  %18 = urem i32 %9, %13
  %19 = icmp eq i32 %18, 0
  br i1 %19, label %31, label %20

20:                                               ; preds = %17
  %21 = srem i32 %10, %13
  %22 = icmp eq i32 %21, 0
  br i1 %22, label %31, label %23

23:                                               ; preds = %12, %20
  %24 = add nuw i32 %13, 1
  %25 = icmp eq i32 %13, %7
  br i1 %25, label %28, label %12, !llvm.loop !9

26:                                               ; preds = %6
  %27 = icmp eq i32 %8, 0
  br i1 %27, label %28, label %31

28:                                               ; preds = %23, %26
  %29 = call i32 (i8*, ...) @printf(i8* nonnull dereferenceable(1) getelementptr inbounds ([7 x i8], [7 x i8]* @.str.1, i64 0, i64 0), i32 %9, i32 %10)
  %30 = load i32, i32* %1, align 4, !tbaa !5
  br label %31

31:                                               ; preds = %17, %20, %26, %28
  %32 = phi i32 [ %7, %26 ], [ %30, %28 ], [ %7, %20 ], [ %7, %17 ]
  %33 = phi i32 [ %8, %26 ], [ 0, %28 ], [ 1, %20 ], [ 1, %17 ]
  %34 = add nuw nsw i32 %9, 2
  %35 = sdiv i32 %32, 2
  %36 = icmp sgt i32 %34, %35
  br i1 %36, label %37, label %6, !llvm.loop !11

37:                                               ; preds = %31, %0
  call void @llvm.lifetime.end.p0i8(i64 4, i8* nonnull %2) #3
  ret i32 0
}

; Function Attrs: argmemonly mustprogress nofree nosync nounwind willreturn
declare void @llvm.lifetime.start.p0i8(i64 immarg, i8* nocapture) #1

; Function Attrs: nofree nounwind
declare noundef i32 @__isoc99_scanf(i8* nocapture noundef readonly, ...) local_unnamed_addr #2

; Function Attrs: nofree nounwind
declare noundef i32 @printf(i8* nocapture noundef readonly, ...) local_unnamed_addr #2

; Function Attrs: argmemonly mustprogress nofree nosync nounwind willreturn
declare void @llvm.lifetime.end.p0i8(i64 immarg, i8* nocapture) #1


!llvm.module.flags = !{!0, !1, !2, !3}
!llvm.ident = !{!4}

!0 = !{i32 1, !"wchar_size", i32 4}
!1 = !{i32 7, !"PIC Level", i32 2}
!2 = !{i32 7, !"PIE Level", i32 2}
!3 = !{i32 7, !"uwtable", i32 1}
!4 = !{!"clang version 13.0.0"}
!5 = !{!6, !6, i64 0}
!6 = !{!"int", !7, i64 0}
!7 = !{!"omnipotent char", !8, i64 0}
!8 = !{!"Simple C/C++ TBAA"}
!9 = distinct !{!9, !10}
!10 = !{!"llvm.loop.mustprogress"}
!11 = distinct !{!11, !10}
